; Function Attrs: nounwind uwtable
define dso_local range(i64 0, 2) i64 @inet_spg_leaf_consistent(ptr noundef readonly captures(none) %0) local_unnamed_addr #1 {
  %2 = getelementptr inbounds nuw i8, ptr %0, i64 32
  %3 = load i64, ptr %2, align 8
  %4 = inttoptr i64 %3 to ptr
  %5 = getelementptr inbounds nuw i8, ptr %0, i64 48
  %6 = load i64, ptr %5, align 8
  %7 = inttoptr i64 %6 to ptr
  %8 = getelementptr inbounds nuw i8, ptr %4, i64 48
  %9 = load i64, ptr %8, align 8
  %10 = inttoptr i64 %9 to ptr
  %11 = tail call ptr @pg_detoast_datum_packed(ptr noundef %10) #4
  %12 = getelementptr inbounds nuw i8, ptr %7, i64 8
  store i8 0, ptr %12, align 8
  %13 = ptrtoint ptr %11 to i64
  store i64 %13, ptr %7, align 8
  %14 = getelementptr inbounds nuw i8, ptr %4, i64 16
  %15 = load i32, ptr %14, align 8
  %16 = load ptr, ptr %4, align 8
  %17 = tail call fastcc i32 @inet_spg_consistent_bitmap(ptr noundef %11, i32 noundef %15, ptr noundef %16, i1 noundef zeroext true)
  %18 = icmp ne i32 %17, 0
  %19 = zext i1 %18 to i64
  ret i64 %19
}